; Function Attrs: nofree norecurse nosync nounwind memory(argmem: readwrite) uwtable
define void @stb__CompressAlphaBlock(ptr noundef writeonly captures(none) %0, ptr noundef readonly captures(none) %1, i32 noundef %2) local_unnamed_addr #5 {
  %4 = load i8, ptr %1, align 1, !tbaa !3
  %5 = zext i8 %4 to i32
  %6 = sext i32 %2 to i64
  br label %7

7:                                                ; preds = %3, %7
  %indvars.iv = phi i64 [ 1, %3 ], [ %indvars.iv.next, %7 ]
  %.06586 = phi i32 [ %5, %3 ], [ %.166, %7 ]
  %.06785 = phi i32 [ %5, %3 ], [ %.168, %7 ]
  %8 = mul nsw i64 %indvars.iv, %6
  %9 = getelementptr inbounds i8, ptr %1, i64 %8
  %10 = load i8, ptr %9, align 1, !tbaa !3
  %11 = zext i8 %10 to i32
  %12 = icmp samesign ugt i32 %.06785, %11
  %spec.select = tail call i32 @llvm.smax.i32(i32 %.06586, i32 %11)
  %.168 = tail call i32 @llvm.umin.i32(i32 %.06785, i32 %11)
  %.166 = select i1 %12, i32 %.06586, i32 %spec.select
  %indvars.iv.next = add nuw nsw i64 %indvars.iv, 1
  %exitcond.not = icmp eq i64 %indvars.iv.next, 16
  br i1 %exitcond.not, label %13, label %7, !llvm.loop !26

13:                                               ; preds = %7
  %14 = trunc nuw i32 %.166 to i8
  store i8 %14, ptr %0, align 1, !tbaa !3
  %15 = trunc nuw i32 %.168 to i8
  %16 = getelementptr inbounds nuw i8, ptr %0, i64 1
  store i8 %15, ptr %16, align 1, !tbaa !3
  %17 = getelementptr inbounds nuw i8, ptr %0, i64 2
  %18 = sub nsw i32 %.166, %.168
  %19 = shl nsw i32 %18, 2
  %20 = shl nsw i32 %18, 1
  %21 = icmp slt i32 %18, 8
  %22 = add nsw i32 %18, -1
  %23 = lshr i32 %18, 1
  %24 = add nuw nsw i32 %23, 2
  %25 = select i1 %21, i32 %22, i32 %24
  br label %26

26:                                               ; preds = %13, %50
  %indvars.iv93 = phi i64 [ 0, %13 ], [ %indvars.iv.next94, %50 ]
  %.091 = phi ptr [ %17, %13 ], [ %.1, %50 ]
  %.06989 = phi i32 [ 0, %13 ], [ %.170, %50 ]
  %.07188 = phi i32 [ 0, %13 ], [ %.172, %50 ]
  %27 = mul nsw i64 %indvars.iv93, %6
  %28 = getelementptr inbounds i8, ptr %1, i64 %27
  %29 = load i8, ptr %28, align 1, !tbaa !3
  %30 = zext i8 %29 to i32
  %reass.add = sub nsw i32 %30, %.168
  %reass.mul = mul nsw i32 %reass.add, 7
  %31 = add i32 %reass.mul, %25
  %.not.not = icmp slt i32 %31, %19
  %.neg80 = select i1 %.not.not, i32 0, i32 4
  %32 = select i1 %.not.not, i32 0, i32 %19
  %33 = sub nsw i32 %31, %32
  %.not.not79 = icmp slt i32 %33, %20
  %.neg81 = select i1 %.not.not79, i32 0, i32 6
  %.neg82 = add nuw nsw i32 %.neg81, %.neg80
  %34 = select i1 %.not.not79, i32 0, i32 %20
  %35 = sub nsw i32 %33, %34
  %36 = icmp sge i32 %35, %18
  %.neg83 = sext i1 %36 to i32
  %.neg84 = add nsw i32 %.neg82, %.neg83
  %37 = and i32 %.neg84, 7
  %38 = icmp samesign ult i32 %37, 2
  %39 = zext i1 %38 to i32
  %40 = xor i32 %37, %39
  %41 = shl i32 %40, %.07188
  %42 = or i32 %41, %.06989
  %43 = add nsw i32 %.07188, 3
  %44 = icmp sgt i32 %.07188, 4
  br i1 %44, label %45, label %50

45:                                               ; preds = %26
  %46 = trunc i32 %42 to i8
  %47 = getelementptr inbounds nuw i8, ptr %.091, i64 1
  store i8 %46, ptr %.091, align 1, !tbaa !3
  %48 = ashr i32 %42, 8
  %49 = add nsw i32 %.07188, -5
  br label %50

50:                                               ; preds = %45, %26
  %.172 = phi i32 [ %49, %45 ], [ %43, %26 ]
  %.170 = phi i32 [ %48, %45 ], [ %42, %26 ]
  %.1 = phi ptr [ %47, %45 ], [ %.091, %26 ]
  %indvars.iv.next94 = add nuw nsw i64 %indvars.iv93, 1
  %exitcond96.not = icmp eq i64 %indvars.iv.next94, 16
  br i1 %exitcond96.not, label %51, label %26, !llvm.loop !27

51:                                               ; preds = %50
  ret void
}